target datalayout = "e-m:e-p270:32:32-p271:32:32-p272:64:64-i64:64-i128:128-f80:128-n8:16:32:64-S128"
target triple = "x86_64-pc-linux-gnu"

%struct._object = type { %union.anon, ptr }
%union.anon = type { i64 }
%struct.PySocketSockObject = type { %struct._object, i32, i32, i32, i32, ptr, i64, ptr }

@PyExc_OSError = external global ptr, align 8
@_Py_NoneStruct = external global %struct._object, align 8
@PyExc_OverflowError = external global ptr, align 8
@PyExc_ValueError = external global ptr, align 8
@.str.115 = private unnamed_addr constant [27 x i8] c"Timeout value out of range\00", align 1
@.str.116 = private unnamed_addr constant [35 x i8] c"timeout doesn't fit into C timeval\00", align 1

; Function Attrs: inlinehint nounwind uwtable
define internal i32 @get_sock_fd(ptr noundef %0) #3 {
  %2 = alloca ptr, align 8
  store ptr %0, ptr %2, align 8, !tbaa !8
  %3 = load ptr, ptr %2, align 8, !tbaa !8
  %4 = getelementptr inbounds nuw %struct.PySocketSockObject, ptr %3, i32 0, i32 1
  %5 = load i32, ptr %4, align 8, !tbaa !113
  ret i32 %5
}

; Function Attrs: nounwind uwtable
define internal i32 @internal_setblocking(ptr noundef %0, i32 noundef %1) #0 {
  %3 = alloca ptr, align 8
  %4 = alloca i32, align 4
  %5 = alloca i32, align 4
  %6 = alloca ptr, align 8
  store ptr %0, ptr %3, align 8, !tbaa !8
  store i32 %1, ptr %4, align 4, !tbaa !15
  call void @llvm.lifetime.start.p0(i64 4, ptr %5) #10
  store i32 -1, ptr %5, align 4, !tbaa !15
  call void @llvm.lifetime.start.p0(i64 8, ptr %6) #10
  %7 = call ptr @PyEval_SaveThread()
  store ptr %7, ptr %6, align 8, !tbaa !26
  %8 = load i32, ptr %4, align 4, !tbaa !15
  %9 = icmp ne i32 %8, 0
  %10 = xor i1 %9, true
  %11 = zext i1 %10 to i32
  store i32 %11, ptr %4, align 4, !tbaa !15
  %12 = load ptr, ptr %3, align 8, !tbaa !8
  %13 = call i32 @get_sock_fd(ptr noundef %12)
  %14 = call i32 (i32, i64, ...) @ioctl(i32 noundef %13, i64 noundef 21537, ptr noundef %4) #10
  %15 = icmp eq i32 %14, -1
  br i1 %15, label %16, label %17

16:                                               ; preds = %2
  br label %18

17:                                               ; preds = %2
  store i32 0, ptr %5, align 4, !tbaa !15
  br label %18

18:                                               ; preds = %17, %16
  %19 = load ptr, ptr %6, align 8, !tbaa !26
  call void @PyEval_RestoreThread(ptr noundef %19)
  call void @llvm.lifetime.end.p0(i64 8, ptr %6) #10
  %20 = load i32, ptr %5, align 4, !tbaa !15
  %21 = icmp ne i32 %20, 0
  br i1 %21, label %22, label %25

22:                                               ; preds = %18
  %23 = load ptr, ptr @PyExc_OSError, align 8, !tbaa !3
  %24 = call ptr @PyErr_SetFromErrno(ptr noundef %23)
  br label %25

25:                                               ; preds = %22, %18
  %26 = load i32, ptr %5, align 4, !tbaa !15
  call void @llvm.lifetime.end.p0(i64 4, ptr %5) #10
  ret i32 %26
}

; Function Attrs: nounwind uwtable
define internal i32 @socket_parse_timeout(ptr noundef %0, ptr noundef %1) #0 {
  %3 = alloca i32, align 4
  %4 = alloca ptr, align 8
  %5 = alloca ptr, align 8
  %6 = alloca i32, align 4
  %7 = alloca i32, align 4
  store ptr %0, ptr %4, align 8, !tbaa !114
  store ptr %1, ptr %5, align 8, !tbaa !3
  call void @llvm.lifetime.start.p0(i64 4, ptr %6) #10
  store i32 0, ptr %6, align 4, !tbaa !15
  %8 = load ptr, ptr %5, align 8, !tbaa !3
  %9 = icmp eq ptr %8, @_Py_NoneStruct
  br i1 %9, label %10, label %13

10:                                               ; preds = %2
  %11 = call i64 @_PyTime_FromSeconds(i32 noundef -1)
  %12 = load ptr, ptr %4, align 8, !tbaa !114
  store i64 %11, ptr %12, align 8, !tbaa !52
  store i32 0, ptr %3, align 4
  store i32 1, ptr %7, align 4
  br label %31

13:                                               ; preds = %2
  %14 = load ptr, ptr %4, align 8, !tbaa !114
  %15 = load ptr, ptr %5, align 8, !tbaa !3
  %16 = call i32 @_PyTime_FromSecondsObject(ptr noundef %14, ptr noundef %15, i32 noundef 3)
  %17 = icmp slt i32 %16, 0
  br i1 %17, label %18, label %19

18:                                               ; preds = %13
  store i32 -1, ptr %3, align 4
  store i32 1, ptr %7, align 4
  br label %31

19:                                               ; preds = %13
  %20 = load ptr, ptr %4, align 8, !tbaa !114
  %21 = load i64, ptr %20, align 8, !tbaa !52
  %22 = icmp slt i64 %21, 0
  br i1 %22, label %23, label %25

23:                                               ; preds = %19
  %24 = load ptr, ptr @PyExc_ValueError, align 8, !tbaa !3
  call void @PyErr_SetString(ptr noundef %24, ptr noundef @.str.115)
  store i32 -1, ptr %3, align 4
  store i32 1, ptr %7, align 4
  br label %31

25:                                               ; preds = %19
  %26 = load i32, ptr %6, align 4, !tbaa !15
  %27 = icmp ne i32 %26, 0
  br i1 %27, label %28, label %30

28:                                               ; preds = %25
  %29 = load ptr, ptr @PyExc_OverflowError, align 8, !tbaa !3
  call void @PyErr_SetString(ptr noundef %29, ptr noundef @.str.116)
  store i32 -1, ptr %3, align 4
  store i32 1, ptr %7, align 4
  br label %31

30:                                               ; preds = %25
  store i32 0, ptr %3, align 4
  store i32 1, ptr %7, align 4
  br label %31

31:                                               ; preds = %30, %28, %23, %18, %10
  call void @llvm.lifetime.end.p0(i64 4, ptr %6) #10
  %32 = load i32, ptr %3, align 4
  ret i32 %32
}

; Function Attrs: nounwind uwtable
define internal ptr @sock_settimeout(ptr noundef %0, ptr noundef %1) #0 {
  %3 = alloca ptr, align 8
  %4 = alloca ptr, align 8
  %5 = alloca ptr, align 8
  %6 = alloca i64, align 8
  %7 = alloca i32, align 4
  %8 = alloca ptr, align 8
  %9 = alloca i32, align 4
  store ptr %0, ptr %4, align 8, !tbaa !3
  store ptr %1, ptr %5, align 8, !tbaa !3
  call void @llvm.lifetime.start.p0(i64 8, ptr %6) #10
  %10 = load ptr, ptr %5, align 8, !tbaa !3
  %11 = call i32 @socket_parse_timeout(ptr noundef %6, ptr noundef %10)
  %12 = icmp slt i32 %11, 0
  br i1 %12, label %13, label %14

13:                                               ; preds = %2
  store ptr null, ptr %3, align 8
  store i32 1, ptr %7, align 4
  br label %29

14:                                               ; preds = %2
  call void @llvm.lifetime.start.p0(i64 8, ptr %8) #10
  %15 = load ptr, ptr %4, align 8, !tbaa !3
  store ptr %15, ptr %8, align 8, !tbaa !8
  %16 = load i64, ptr %6, align 8, !tbaa !52
  %17 = load ptr, ptr %8, align 8, !tbaa !8
  %18 = getelementptr inbounds nuw %struct.PySocketSockObject, ptr %17, i32 0, i32 6
  store i64 %16, ptr %18, align 8, !tbaa !111
  call void @llvm.lifetime.start.p0(i64 4, ptr %9) #10
  %19 = load i64, ptr %6, align 8, !tbaa !52
  %20 = icmp slt i64 %19, 0
  %21 = zext i1 %20 to i32
  store i32 %21, ptr %9, align 4, !tbaa !15
  %22 = load ptr, ptr %8, align 8, !tbaa !8
  %23 = load i32, ptr %9, align 4, !tbaa !15
  %24 = call i32 @internal_setblocking(ptr noundef %22, i32 noundef %23)
  %25 = icmp eq i32 %24, -1
  br i1 %25, label %26, label %27

26:                                               ; preds = %14
  store ptr null, ptr %3, align 8
  store i32 1, ptr %7, align 4
  br label %28

27:                                               ; preds = %14
  store ptr @_Py_NoneStruct, ptr %3, align 8
  store i32 1, ptr %7, align 4
  br label %28

28:                                               ; preds = %27, %26
  call void @llvm.lifetime.end.p0(i64 4, ptr %9) #10
  call void @llvm.lifetime.end.p0(i64 8, ptr %8) #10
  br label %29

29:                                               ; preds = %28, %13
  call void @llvm.lifetime.end.p0(i64 8, ptr %6) #10
  %30 = load ptr, ptr %3, align 8
  ret ptr %30
}