; Function Attrs: nounwind uwtable
define internal noundef ptr @sock_settimeout(ptr noundef captures(none) %0, ptr noundef %1) #0 {
  %3 = alloca i32, align 4
  %4 = alloca i64, align 8
  call void @llvm.lifetime.start.p0(i64 8, ptr nonnull %4) #13
  %5 = icmp eq ptr %1, @_Py_NoneStruct
  br i1 %5, label %6, label %8

6:                                                ; preds = %2
  %7 = tail call i64 @_PyTime_FromSeconds(i32 noundef -1) #13
  store i64 %7, ptr %4, align 8, !tbaa !47
  br label %socket_parse_timeout.exit

8:                                                ; preds = %2
  %9 = call i32 @_PyTime_FromSecondsObject(ptr noundef nonnull %4, ptr noundef %1, i32 noundef 3) #13
  %10 = icmp slt i32 %9, 0
  br i1 %10, label %socket_parse_timeout.exit.thread, label %11

11:                                               ; preds = %8
  %12 = load i64, ptr %4, align 8, !tbaa !47
  %13 = icmp slt i64 %12, 0
  br i1 %13, label %14, label %socket_parse_timeout.exit

14:                                               ; preds = %11
  %15 = load ptr, ptr @PyExc_ValueError, align 8, !tbaa !19
  call void @PyErr_SetString(ptr noundef %15, ptr noundef nonnull @.str.115) #13
  br label %socket_parse_timeout.exit.thread

socket_parse_timeout.exit:                        ; preds = %11, %6
  %16 = phi i64 [ %12, %11 ], [ %7, %6 ]
  %17 = getelementptr inbounds nuw i8, ptr %0, i64 40
  store i64 %16, ptr %17, align 8, !tbaa !90
  call void @llvm.lifetime.start.p0(i64 4, ptr nonnull %3)
  %18 = call ptr @PyEval_SaveThread() #13
  %.not.i = icmp sgt i64 %16, -1
  %19 = zext i1 %.not.i to i32
  store i32 %19, ptr %3, align 4, !tbaa !35
  %20 = getelementptr i8, ptr %0, i64 16
  %.val.i = load i32, ptr %20, align 8, !tbaa !83
  %21 = call i32 (i32, i64, ...) @ioctl(i32 noundef %.val.i, i64 noundef 21537, ptr noundef nonnull %3) #13
  %.not4.i = icmp eq i32 %21, -1
  call void @PyEval_RestoreThread(ptr noundef %18) #13
  br i1 %.not4.i, label %22, label %internal_setblocking.exit

22:                                               ; preds = %socket_parse_timeout.exit
  %23 = load ptr, ptr @PyExc_OSError, align 8, !tbaa !19
  %24 = call ptr @PyErr_SetFromErrno(ptr noundef %23) #13
  br label %internal_setblocking.exit

internal_setblocking.exit:                        ; preds = %socket_parse_timeout.exit, %22
  %._Py_NoneStruct = phi ptr [ @_Py_NoneStruct, %socket_parse_timeout.exit ], [ null, %22 ]
  call void @llvm.lifetime.end.p0(i64 4, ptr nonnull %3)
  br label %socket_parse_timeout.exit.thread

socket_parse_timeout.exit.thread:                 ; preds = %8, %14, %internal_setblocking.exit
  %.0 = phi ptr [ %._Py_NoneStruct, %internal_setblocking.exit ], [ null, %14 ], [ null, %8 ]
  call void @llvm.lifetime.end.p0(i64 8, ptr nonnull %4) #13
  ret ptr %.0
}